; ModuleID = '23/895.c'
source_filename = "23/895.c"
target datalayout = "e-m:e-p270:32:32-p271:32:32-p272:64:64-i64:64-f80:128-n8:16:32:64-S128"
target triple = "x86_64-pc-linux-gnu"

@.str = private unnamed_addr constant [3 x i8] c"%c\00", align 1
@.str.1 = private unnamed_addr constant [2 x i8] c" \00", align 1

; Function Attrs: noinline nounwind uwtable
define dso_local void @main() #0 {
  %1 = alloca i32, align 4
  %2 = alloca i32, align 4
  %3 = alloca i32, align 4
  %4 = alloca [526 x i8], align 16
  %5 = alloca i8*, align 8
  %6 = alloca i8*, align 8
  %7 = alloca i8*, align 8
  %8 = getelementptr inbounds [526 x i8], [526 x i8]* %4, i64 0, i64 0
  %9 = call i32 (i8*, ...) bitcast (i32 (...)* @gets to i32 (i8*, ...)*)(i8* %8)
  %10 = getelementptr inbounds [526 x i8], [526 x i8]* %4, i64 0, i64 0
  %11 = call i64 @strlen(i8* %10) #3
  %12 = trunc i64 %11 to i32
  store i32 %12, i32* %3, align 4
  %13 = load i32, i32* %3, align 4
  store i32 %13, i32* %1, align 4
  br label %14

14:                                               ; preds = %28, %0
  %15 = load i32, i32* %1, align 4
  %16 = icmp sge i32 %15, 0
  br i1 %16, label %17, label %31

17:                                               ; preds = %14
  %18 = getelementptr inbounds [526 x i8], [526 x i8]* %4, i64 0, i64 0
  %19 = load i32, i32* %1, align 4
  %20 = sext i32 %19 to i64
  %21 = getelementptr inbounds i8, i8* %18, i64 %20
  %22 = load i8, i8* %21, align 1
  %23 = getelementptr inbounds [526 x i8], [526 x i8]* %4, i64 0, i64 0
  %24 = load i32, i32* %1, align 4
  %25 = sext i32 %24 to i64
  %26 = getelementptr inbounds i8, i8* %23, i64 %25
  %27 = getelementptr inbounds i8, i8* %26, i64 1
  store i8 %22, i8* %27, align 1
  br label %28

28:                                               ; preds = %17
  %29 = load i32, i32* %1, align 4
  %30 = add nsw i32 %29, -1
  store i32 %30, i32* %1, align 4
  br label %14

31:                                               ; preds = %14
  %32 = getelementptr inbounds [526 x i8], [526 x i8]* %4, i64 0, i64 0
  store i8 32, i8* %32, align 16
  %33 = getelementptr inbounds [526 x i8], [526 x i8]* %4, i64 0, i64 0
  %34 = load i32, i32* %3, align 4
  %35 = sext i32 %34 to i64
  %36 = getelementptr inbounds i8, i8* %33, i64 %35
  %37 = getelementptr inbounds i8, i8* %36, i64 1
  store i8 32, i8* %37, align 1
  %38 = getelementptr inbounds [526 x i8], [526 x i8]* %4, i64 0, i64 0
  %39 = load i32, i32* %3, align 4
  %40 = sext i32 %39 to i64
  %41 = getelementptr inbounds i8, i8* %38, i64 %40
  %42 = getelementptr inbounds i8, i8* %41, i64 1
  store i8* %42, i8** %6, align 8
  %43 = getelementptr inbounds [526 x i8], [526 x i8]* %4, i64 0, i64 0
  %44 = load i32, i32* %3, align 4
  %45 = sext i32 %44 to i64
  %46 = getelementptr inbounds i8, i8* %43, i64 %45
  store i8* %46, i8** %7, align 8
  br label %47

47:                                               ; preds = %80, %31
  %48 = load i8*, i8** %7, align 8
  %49 = getelementptr inbounds [526 x i8], [526 x i8]* %4, i64 0, i64 0
  %50 = icmp uge i8* %48, %49
  br i1 %50, label %51, label %83

51:                                               ; preds = %47
  %52 = load i8*, i8** %7, align 8
  %53 = load i8, i8* %52, align 1
  %54 = sext i8 %53 to i32
  %55 = icmp eq i32 %54, 32
  br i1 %55, label %56, label %79

56:                                               ; preds = %51
  %57 = load i8*, i8** %7, align 8
  %58 = getelementptr inbounds i8, i8* %57, i64 1
  store i8* %58, i8** %5, align 8
  br label %59

59:                                               ; preds = %68, %56
  %60 = load i8*, i8** %5, align 8
  %61 = load i8*, i8** %6, align 8
  %62 = icmp ult i8* %60, %61
  br i1 %62, label %63, label %71

63:                                               ; preds = %59
  %64 = load i8*, i8** %5, align 8
  %65 = load i8, i8* %64, align 1
  %66 = sext i8 %65 to i32
  %67 = call i32 (i8*, ...) @printf(i8* getelementptr inbounds ([3 x i8], [3 x i8]* @.str, i64 0, i64 0), i32 %66)
  br label %68

68:                                               ; preds = %63
  %69 = load i8*, i8** %5, align 8
  %70 = getelementptr inbounds i8, i8* %69, i32 1
  store i8* %70, i8** %5, align 8
  br label %59

71:                                               ; preds = %59
  %72 = load i8*, i8** %7, align 8
  %73 = getelementptr inbounds [526 x i8], [526 x i8]* %4, i64 0, i64 0
  %74 = icmp ne i8* %72, %73
  br i1 %74, label %75, label %77

75:                                               ; preds = %71
  %76 = call i32 (i8*, ...) @printf(i8* getelementptr inbounds ([2 x i8], [2 x i8]* @.str.1, i64 0, i64 0))
  br label %77

77:                                               ; preds = %75, %71
  %78 = load i8*, i8** %7, align 8
  store i8* %78, i8** %6, align 8
  br label %79

79:                                               ; preds = %77, %51
  br label %80

80:                                               ; preds = %79
  %81 = load i8*, i8** %7, align 8
  %82 = getelementptr inbounds i8, i8* %81, i32 -1
  store i8* %82, i8** %7, align 8
  br label %47

83:                                               ; preds = %47
  ret void
}

declare dso_local i32 @gets(...) #1

; Function Attrs: nounwind readonly
declare dso_local i64 @strlen(i8*) #2

declare dso_local i32 @printf(i8*, ...) #1


!llvm.module.flags = !{!0}
!llvm.ident = !{!1}

!0 = !{i32 1, !"wchar_size", i32 4}
!1 = !{!"clang version 10.0.0-4ubuntu1 "}
